; ModuleID = '776.c'
source_filename = "776.c"
target datalayout = "e-m:e-p270:32:32-p271:32:32-p272:64:64-i64:64-f80:128-n8:16:32:64-S128"
target triple = "x86_64-pc-linux-gnu"

@.str = private unnamed_addr constant [3 x i8] c"%d\00", align 1

; Function Attrs: noinline nounwind uwtable
define dso_local i32 @main() #0 {
  %1 = alloca i32, align 4
  %2 = alloca i32, align 4
  %3 = alloca [25 x i32], align 16
  %4 = alloca [25 x i32], align 16
  %5 = alloca i32, align 4
  %6 = alloca i32, align 4
  %7 = alloca i32, align 4
  %8 = alloca i32, align 4
  %9 = alloca i32, align 4
  store i32 0, i32* %1, align 4
  store i32 0, i32* %5, align 4
  %10 = call i32 (i8*, ...) @__isoc99_scanf(i8* getelementptr inbounds ([3 x i8], [3 x i8]* @.str, i64 0, i64 0), i32* %2)
  store i32 0, i32* %6, align 4
  br label %11

11:                                               ; preds = %23, %0
  %12 = load i32, i32* %6, align 4
  %13 = load i32, i32* %2, align 4
  %14 = icmp slt i32 %12, %13
  br i1 %14, label %15, label %26

15:                                               ; preds = %11
  %16 = load i32, i32* %6, align 4
  %17 = sext i32 %16 to i64
  %18 = getelementptr inbounds [25 x i32], [25 x i32]* %3, i64 0, i64 %17
  %19 = call i32 (i8*, ...) @__isoc99_scanf(i8* getelementptr inbounds ([3 x i8], [3 x i8]* @.str, i64 0, i64 0), i32* %18)
  %20 = load i32, i32* %6, align 4
  %21 = sext i32 %20 to i64
  %22 = getelementptr inbounds [25 x i32], [25 x i32]* %4, i64 0, i64 %21
  store i32 1, i32* %22, align 4
  br label %23

23:                                               ; preds = %15
  %24 = load i32, i32* %6, align 4
  %25 = add nsw i32 %24, 1
  store i32 %25, i32* %6, align 4
  br label %11

26:                                               ; preds = %11
  %27 = load i32, i32* %2, align 4
  %28 = sub nsw i32 %27, 2
  store i32 %28, i32* %7, align 4
  br label %29

29:                                               ; preds = %74, %26
  %30 = load i32, i32* %7, align 4
  %31 = icmp sge i32 %30, 0
  br i1 %31, label %32, label %77

32:                                               ; preds = %29
  %33 = load i32, i32* %7, align 4
  %34 = add nsw i32 %33, 1
  store i32 %34, i32* %8, align 4
  br label %35

35:                                               ; preds = %70, %32
  %36 = load i32, i32* %8, align 4
  %37 = load i32, i32* %2, align 4
  %38 = icmp slt i32 %36, %37
  br i1 %38, label %39, label %73

39:                                               ; preds = %35
  %40 = load i32, i32* %8, align 4
  %41 = sext i32 %40 to i64
  %42 = getelementptr inbounds [25 x i32], [25 x i32]* %3, i64 0, i64 %41
  %43 = load i32, i32* %42, align 4
  %44 = load i32, i32* %7, align 4
  %45 = sext i32 %44 to i64
  %46 = getelementptr inbounds [25 x i32], [25 x i32]* %3, i64 0, i64 %45
  %47 = load i32, i32* %46, align 4
  %48 = icmp sle i32 %43, %47
  br i1 %48, label %49, label %69

49:                                               ; preds = %39
  %50 = load i32, i32* %8, align 4
  %51 = sext i32 %50 to i64
  %52 = getelementptr inbounds [25 x i32], [25 x i32]* %4, i64 0, i64 %51
  %53 = load i32, i32* %52, align 4
  %54 = add nsw i32 %53, 1
  %55 = load i32, i32* %7, align 4
  %56 = sext i32 %55 to i64
  %57 = getelementptr inbounds [25 x i32], [25 x i32]* %4, i64 0, i64 %56
  %58 = load i32, i32* %57, align 4
  %59 = icmp sgt i32 %54, %58
  br i1 %59, label %60, label %69

60:                                               ; preds = %49
  %61 = load i32, i32* %8, align 4
  %62 = sext i32 %61 to i64
  %63 = getelementptr inbounds [25 x i32], [25 x i32]* %4, i64 0, i64 %62
  %64 = load i32, i32* %63, align 4
  %65 = add nsw i32 %64, 1
  %66 = load i32, i32* %7, align 4
  %67 = sext i32 %66 to i64
  %68 = getelementptr inbounds [25 x i32], [25 x i32]* %4, i64 0, i64 %67
  store i32 %65, i32* %68, align 4
  br label %69

69:                                               ; preds = %60, %49, %39
  br label %70

70:                                               ; preds = %69
  %71 = load i32, i32* %8, align 4
  %72 = add nsw i32 %71, 1
  store i32 %72, i32* %8, align 4
  br label %35

73:                                               ; preds = %35
  br label %74

74:                                               ; preds = %73
  %75 = load i32, i32* %7, align 4
  %76 = add nsw i32 %75, -1
  store i32 %76, i32* %7, align 4
  br label %29

77:                                               ; preds = %29
  store i32 1, i32* %9, align 4
  br label %78

78:                                               ; preds = %95, %77
  %79 = load i32, i32* %9, align 4
  %80 = load i32, i32* %2, align 4
  %81 = icmp slt i32 %79, %80
  br i1 %81, label %82, label %98

82:                                               ; preds = %78
  %83 = load i32, i32* %9, align 4
  %84 = sext i32 %83 to i64
  %85 = getelementptr inbounds [25 x i32], [25 x i32]* %4, i64 0, i64 %84
  %86 = load i32, i32* %85, align 4
  %87 = load i32, i32* %5, align 4
  %88 = sext i32 %87 to i64
  %89 = getelementptr inbounds [25 x i32], [25 x i32]* %4, i64 0, i64 %88
  %90 = load i32, i32* %89, align 4
  %91 = icmp sgt i32 %86, %90
  br i1 %91, label %92, label %94

92:                                               ; preds = %82
  %93 = load i32, i32* %9, align 4
  store i32 %93, i32* %5, align 4
  br label %94

94:                                               ; preds = %92, %82
  br label %95

95:                                               ; preds = %94
  %96 = load i32, i32* %9, align 4
  %97 = add nsw i32 %96, 1
  store i32 %97, i32* %9, align 4
  br label %78

98:                                               ; preds = %78
  %99 = load i32, i32* %5, align 4
  %100 = sext i32 %99 to i64
  %101 = getelementptr inbounds [25 x i32], [25 x i32]* %4, i64 0, i64 %100
  %102 = load i32, i32* %101, align 4
  %103 = call i32 (i8*, ...) @printf(i8* getelementptr inbounds ([3 x i8], [3 x i8]* @.str, i64 0, i64 0), i32 %102)
  ret i32 0
}

declare dso_local i32 @__isoc99_scanf(i8*, ...) #1

declare dso_local i32 @printf(i8*, ...) #1


!llvm.module.flags = !{!0}
!llvm.ident = !{!1}

!0 = !{i32 1, !"wchar_size", i32 4}
!1 = !{!"clang version 10.0.0-4ubuntu1 "}
